target datalayout = "e-m:e-p270:32:32-p271:32:32-p272:64:64-i64:64-i128:128-f80:128-n8:16:32:64-S128"
target triple = "x86_64-pc-linux-gnu"

%struct.expert_field = type { i32, i32 }

@hf_edonkey_string = internal global i32 0, align 4
@hf_edonkey_string_length = internal global i32 0, align 4
@hf_kademlia_search_expression_type = internal global i32 0, align 4
@hf_kademlia_search_bool_op = internal global i32 0, align 4
@hf_kademlia_search_condition = internal global i32 0, align 4
@hf_kademlia_search_condition_argument_uint32 = internal global i32 0, align 4
@hf_kademlia_search_condition_argument_uint64 = internal global i32 0, align 4
@hf_edonkey_kademlia_string = internal global i32 0, align 4
@ett_kademlia_search_expression = internal global i32 0, align 4
@ei_kademlia_search_expression_type = internal global %struct.expert_field zeroinitializer, align 4
@.str.363 = private unnamed_addr constant [8 x i8] c"Unknown\00", align 1
@.str.577 = private unnamed_addr constant [6 x i8] c" [%s]\00", align 1
@.str.651 = private unnamed_addr constant [18 x i8] c"NOT DECODED op %x\00", align 1

; Function Attrs: null_pointer_is_valid sspstrong uwtable
define internal i32 @dissect_kademlia_search_condition_argument_uint64(ptr noundef %0, ptr noundef %1, i32 noundef %2, ptr noundef %3) #0 {
  %5 = alloca ptr, align 8
  %6 = alloca ptr, align 8
  %7 = alloca i32, align 4
  %8 = alloca ptr, align 8
  store ptr %0, ptr %5, align 8
  store ptr %1, ptr %6, align 8
  store i32 %2, ptr %7, align 4
  store ptr %3, ptr %8, align 8
  %9 = load ptr, ptr %8, align 8
  %10 = load i32, ptr @hf_kademlia_search_condition_argument_uint64, align 4
  %11 = load ptr, ptr %5, align 8
  %12 = load i32, ptr %7, align 4
  %13 = call ptr @proto_tree_add_item(ptr noundef %9, i32 noundef %10, ptr noundef %11, i32 noundef %12, i32 noundef 8, i32 noundef -2147483648)
  %14 = load i32, ptr %7, align 4
  %15 = add i32 %14, 8
  ret i32 %15
}

; Function Attrs: null_pointer_is_valid sspstrong uwtable
define internal i32 @dissect_kademlia_search_condition(ptr noundef %0, ptr noundef %1, i32 noundef %2, ptr noundef %3) #0 {
  %5 = alloca ptr, align 8
  %6 = alloca ptr, align 8
  %7 = alloca i32, align 4
  %8 = alloca ptr, align 8
  %9 = alloca ptr, align 8
  %10 = alloca i16, align 2
  store ptr %0, ptr %5, align 8
  store ptr %1, ptr %6, align 8
  store i32 %2, ptr %7, align 4
  store ptr %3, ptr %8, align 8
  call void @llvm.lifetime.start.p0(i64 8, ptr %9) #6
  call void @llvm.lifetime.start.p0(i64 2, ptr %10) #6
  %11 = load ptr, ptr %5, align 8
  %12 = load i32, ptr %7, align 4
  %13 = call zeroext i8 @tvb_get_uint8(ptr noundef %11, i32 noundef %12)
  %14 = zext i8 %13 to i16
  store i16 %14, ptr %10, align 2
  %15 = load ptr, ptr %8, align 8
  %16 = load i32, ptr @hf_kademlia_search_condition, align 4
  %17 = load ptr, ptr %5, align 8
  %18 = load i32, ptr %7, align 4
  %19 = call ptr @proto_tree_add_item(ptr noundef %15, i32 noundef %16, ptr noundef %17, i32 noundef %18, i32 noundef 1, i32 noundef 0)
  store ptr %19, ptr %9, align 8
  %20 = load ptr, ptr %9, align 8
  %21 = load i16, ptr %10, align 2
  %22 = zext i16 %21 to i32
  %23 = call ptr @val_to_str_const(i32 noundef %22, ptr noundef @kademlia_search_conds, ptr noundef @.str.363)
  call void (ptr, ptr, ...) @proto_item_append_text(ptr noundef %20, ptr noundef @.str.577, ptr noundef %23)
  %24 = load i32, ptr %7, align 4
  %25 = add i32 %24, 1
  call void @llvm.lifetime.end.p0(i64 2, ptr %10) #6
  call void @llvm.lifetime.end.p0(i64 8, ptr %9) #6
  ret i32 %25
}

; Function Attrs: null_pointer_is_valid sspstrong uwtable
define internal i32 @dissect_kademlia_search_condition_argument_uint32(ptr noundef %0, ptr noundef %1, i32 noundef %2, ptr noundef %3) #0 {
  %5 = alloca ptr, align 8
  %6 = alloca ptr, align 8
  %7 = alloca i32, align 4
  %8 = alloca ptr, align 8
  store ptr %0, ptr %5, align 8
  store ptr %1, ptr %6, align 8
  store i32 %2, ptr %7, align 4
  store ptr %3, ptr %8, align 8
  %9 = load ptr, ptr %8, align 8
  %10 = load i32, ptr @hf_kademlia_search_condition_argument_uint32, align 4
  %11 = load ptr, ptr %5, align 8
  %12 = load i32, ptr %7, align 4
  %13 = call ptr @proto_tree_add_item(ptr noundef %9, i32 noundef %10, ptr noundef %11, i32 noundef %12, i32 noundef 4, i32 noundef -2147483648)
  %14 = load i32, ptr %7, align 4
  %15 = add i32 %14, 4
  ret i32 %15
}

; Function Attrs: null_pointer_is_valid sspstrong uwtable
define internal i32 @dissect_edonkey_string(ptr noundef %0, ptr noundef %1, i32 noundef %2, ptr noundef %3) #0 {
  %5 = alloca ptr, align 8
  %6 = alloca ptr, align 8
  %7 = alloca i32, align 4
  %8 = alloca ptr, align 8
  %9 = alloca i16, align 2
  store ptr %0, ptr %5, align 8
  store ptr %1, ptr %6, align 8
  store i32 %2, ptr %7, align 4
  store ptr %3, ptr %8, align 8
  call void @llvm.lifetime.start.p0(i64 2, ptr %9) #6
  %10 = load ptr, ptr %5, align 8
  %11 = load i32, ptr %7, align 4
  %12 = call zeroext i16 @tvb_get_letohs(ptr noundef %10, i32 noundef %11)
  store i16 %12, ptr %9, align 2
  %13 = load ptr, ptr %8, align 8
  %14 = load i32, ptr @hf_edonkey_string_length, align 4
  %15 = load ptr, ptr %5, align 8
  %16 = load i32, ptr %7, align 4
  %17 = load i16, ptr %9, align 2
  %18 = zext i16 %17 to i32
  %19 = call ptr @proto_tree_add_uint(ptr noundef %13, i32 noundef %14, ptr noundef %15, i32 noundef %16, i32 noundef 2, i32 noundef %18)
  %20 = load ptr, ptr %8, align 8
  %21 = load i32, ptr @hf_edonkey_string, align 4
  %22 = load ptr, ptr %5, align 8
  %23 = load i32, ptr %7, align 4
  %24 = add i32 %23, 2
  %25 = load i16, ptr %9, align 2
  %26 = zext i16 %25 to i32
  %27 = call ptr @proto_tree_add_item(ptr noundef %20, i32 noundef %21, ptr noundef %22, i32 noundef %24, i32 noundef %26, i32 noundef 0)
  %28 = load i32, ptr %7, align 4
  %29 = add i32 %28, 2
  %30 = load i16, ptr %9, align 2
  %31 = zext i16 %30 to i32
  %32 = add i32 %29, %31
  call void @llvm.lifetime.end.p0(i64 2, ptr %9) #6
  ret i32 %32
}

; Function Attrs: null_pointer_is_valid sspstrong uwtable
define internal i32 @dissect_kademlia_string(ptr noundef %0, ptr noundef %1, i32 noundef %2, ptr noundef %3) #0 {
  %5 = alloca ptr, align 8
  %6 = alloca ptr, align 8
  %7 = alloca i32, align 4
  %8 = alloca ptr, align 8
  %9 = alloca i16, align 2
  store ptr %0, ptr %5, align 8
  store ptr %1, ptr %6, align 8
  store i32 %2, ptr %7, align 4
  store ptr %3, ptr %8, align 8
  call void @llvm.lifetime.start.p0(i64 2, ptr %9) #6
  %10 = load ptr, ptr %5, align 8
  %11 = load i32, ptr %7, align 4
  %12 = call zeroext i16 @tvb_get_letohs(ptr noundef %10, i32 noundef %11)
  store i16 %12, ptr %9, align 2
  %13 = load ptr, ptr %8, align 8
  %14 = load i32, ptr @hf_edonkey_string_length, align 4
  %15 = load ptr, ptr %5, align 8
  %16 = load i32, ptr %7, align 4
  %17 = load i16, ptr %9, align 2
  %18 = zext i16 %17 to i32
  %19 = call ptr @proto_tree_add_uint(ptr noundef %13, i32 noundef %14, ptr noundef %15, i32 noundef %16, i32 noundef 2, i32 noundef %18)
  %20 = load ptr, ptr %8, align 8
  %21 = load i32, ptr @hf_edonkey_kademlia_string, align 4
  %22 = load ptr, ptr %5, align 8
  %23 = load i32, ptr %7, align 4
  %24 = add i32 %23, 2
  %25 = load i16, ptr %9, align 2
  %26 = zext i16 %25 to i32
  %27 = call ptr @proto_tree_add_item(ptr noundef %20, i32 noundef %21, ptr noundef %22, i32 noundef %24, i32 noundef %26, i32 noundef 0)
  %28 = load i32, ptr %7, align 4
  %29 = add i32 %28, 2
  %30 = load i16, ptr %9, align 2
  %31 = zext i16 %30 to i32
  %32 = add i32 %29, %31
  call void @llvm.lifetime.end.p0(i64 2, ptr %9) #6
  ret i32 %32
}

; Function Attrs: null_pointer_is_valid sspstrong uwtable
define internal i32 @dissect_kademlia_search_expression_tree(ptr noundef %0, ptr noundef %1, i32 noundef %2, ptr noundef %3) #0 {
  %5 = alloca ptr, align 8
  %6 = alloca ptr, align 8
  %7 = alloca i32, align 4
  %8 = alloca ptr, align 8
  %9 = alloca i32, align 4
  %10 = alloca i32, align 4
  %11 = alloca ptr, align 8
  store ptr %0, ptr %5, align 8
  store ptr %1, ptr %6, align 8
  store i32 %2, ptr %7, align 4
  store ptr %3, ptr %8, align 8
  call void @llvm.lifetime.start.p0(i64 4, ptr %9) #6
  call void @llvm.lifetime.start.p0(i64 4, ptr %10) #6
  call void @llvm.lifetime.start.p0(i64 8, ptr %11) #6
  %12 = load i32, ptr %7, align 4
  store i32 %12, ptr %10, align 4
  %13 = load ptr, ptr %5, align 8
  %14 = load i32, ptr %7, align 4
  %15 = call zeroext i8 @tvb_get_uint8(ptr noundef %13, i32 noundef %14)
  %16 = zext i8 %15 to i32
  store i32 %16, ptr %9, align 4
  %17 = load ptr, ptr %8, align 8
  %18 = load i32, ptr @hf_kademlia_search_expression_type, align 4
  %19 = load ptr, ptr %5, align 8
  %20 = load i32, ptr %7, align 4
  %21 = load i32, ptr %9, align 4
  %22 = call ptr @proto_tree_add_uint(ptr noundef %17, i32 noundef %18, ptr noundef %19, i32 noundef %20, i32 noundef 1, i32 noundef %21)
  store ptr %22, ptr %11, align 8
  %23 = load ptr, ptr %11, align 8
  %24 = load i32, ptr @ett_kademlia_search_expression, align 4
  %25 = call ptr @proto_item_add_subtree(ptr noundef %23, i32 noundef %24)
  store ptr %25, ptr %8, align 8
  %26 = load i32, ptr %7, align 4
  %27 = add i32 %26, 1
  store i32 %27, ptr %7, align 4
  %28 = load ptr, ptr %6, align 8
  call void @increment_dissection_depth(ptr noundef %28)
  %29 = load i32, ptr %9, align 4
  switch i32 %29, label %97 [
    i32 0, label %30
    i32 1, label %48
    i32 2, label %54
    i32 3, label %65
    i32 8, label %81
  ]

30:                                               ; preds = %4
  %31 = load ptr, ptr %8, align 8
  %32 = load i32, ptr @hf_kademlia_search_bool_op, align 4
  %33 = load ptr, ptr %5, align 8
  %34 = load i32, ptr %7, align 4
  %35 = call ptr @proto_tree_add_item(ptr noundef %31, i32 noundef %32, ptr noundef %33, i32 noundef %34, i32 noundef 1, i32 noundef 0)
  %36 = load i32, ptr %7, align 4
  %37 = add i32 %36, 1
  store i32 %37, ptr %7, align 4
  %38 = load ptr, ptr %5, align 8
  %39 = load ptr, ptr %6, align 8
  %40 = load i32, ptr %7, align 4
  %41 = load ptr, ptr %8, align 8
  %42 = call i32 @dissect_kademlia_search_expression_tree(ptr noundef %38, ptr noundef %39, i32 noundef %40, ptr noundef %41)
  store i32 %42, ptr %7, align 4
  %43 = load ptr, ptr %5, align 8
  %44 = load ptr, ptr %6, align 8
  %45 = load i32, ptr %7, align 4
  %46 = load ptr, ptr %8, align 8
  %47 = call i32 @dissect_kademlia_search_expression_tree(ptr noundef %43, ptr noundef %44, i32 noundef %45, ptr noundef %46)
  store i32 %47, ptr %7, align 4
  br label %102

48:                                               ; preds = %4
  %49 = load ptr, ptr %5, align 8
  %50 = load ptr, ptr %6, align 8
  %51 = load i32, ptr %7, align 4
  %52 = load ptr, ptr %8, align 8
  %53 = call i32 @dissect_kademlia_string(ptr noundef %49, ptr noundef %50, i32 noundef %51, ptr noundef %52)
  store i32 %53, ptr %7, align 4
  br label %102

54:                                               ; preds = %4
  %55 = load ptr, ptr %5, align 8
  %56 = load ptr, ptr %6, align 8
  %57 = load i32, ptr %7, align 4
  %58 = load ptr, ptr %8, align 8
  %59 = call i32 @dissect_edonkey_string(ptr noundef %55, ptr noundef %56, i32 noundef %57, ptr noundef %58)
  store i32 %59, ptr %7, align 4
  %60 = load ptr, ptr %5, align 8
  %61 = load ptr, ptr %6, align 8
  %62 = load i32, ptr %7, align 4
  %63 = load ptr, ptr %8, align 8
  %64 = call i32 @dissect_kademlia_tagname(ptr noundef %60, ptr noundef %61, i32 noundef %62, ptr noundef %63, ptr noundef null, ptr noundef null)
  store i32 %64, ptr %7, align 4
  br label %102

65:                                               ; preds = %4
  %66 = load ptr, ptr %5, align 8
  %67 = load ptr, ptr %6, align 8
  %68 = load i32, ptr %7, align 4
  %69 = load ptr, ptr %8, align 8
  %70 = call i32 @dissect_kademlia_search_condition_argument_uint32(ptr noundef %66, ptr noundef %67, i32 noundef %68, ptr noundef %69)
  store i32 %70, ptr %7, align 4
  %71 = load ptr, ptr %5, align 8
  %72 = load ptr, ptr %6, align 8
  %73 = load i32, ptr %7, align 4
  %74 = load ptr, ptr %8, align 8
  %75 = call i32 @dissect_kademlia_search_condition(ptr noundef %71, ptr noundef %72, i32 noundef %73, ptr noundef %74)
  store i32 %75, ptr %7, align 4
  %76 = load ptr, ptr %5, align 8
  %77 = load ptr, ptr %6, align 8
  %78 = load i32, ptr %7, align 4
  %79 = load ptr, ptr %8, align 8
  %80 = call i32 @dissect_kademlia_tagname(ptr noundef %76, ptr noundef %77, i32 noundef %78, ptr noundef %79, ptr noundef null, ptr noundef null)
  store i32 %80, ptr %7, align 4
  br label %102

81:                                               ; preds = %4
  %82 = load ptr, ptr %5, align 8
  %83 = load ptr, ptr %6, align 8
  %84 = load i32, ptr %7, align 4
  %85 = load ptr, ptr %8, align 8
  %86 = call i32 @dissect_kademlia_search_condition_argument_uint64(ptr noundef %82, ptr noundef %83, i32 noundef %84, ptr noundef %85)
  store i32 %86, ptr %7, align 4
  %87 = load ptr, ptr %5, align 8
  %88 = load ptr, ptr %6, align 8
  %89 = load i32, ptr %7, align 4
  %90 = load ptr, ptr %8, align 8
  %91 = call i32 @dissect_kademlia_search_condition(ptr noundef %87, ptr noundef %88, i32 noundef %89, ptr noundef %90)
  store i32 %91, ptr %7, align 4
  %92 = load ptr, ptr %5, align 8
  %93 = load ptr, ptr %6, align 8
  %94 = load i32, ptr %7, align 4
  %95 = load ptr, ptr %8, align 8
  %96 = call i32 @dissect_kademlia_tagname(ptr noundef %92, ptr noundef %93, i32 noundef %94, ptr noundef %95, ptr noundef null, ptr noundef null)
  store i32 %96, ptr %7, align 4
  br label %102

97:                                               ; preds = %4
  %98 = load ptr, ptr %6, align 8
  %99 = load ptr, ptr %11, align 8
  %100 = load i32, ptr %9, align 4
  %101 = call ptr (ptr, ptr, ptr, ptr, ...) @expert_add_info_format(ptr noundef %98, ptr noundef %99, ptr noundef @ei_kademlia_search_expression_type, ptr noundef @.str.651, i32 noundef %100)
  br label %102

102:                                              ; preds = %97, %81, %65, %54, %48, %30
  %103 = load ptr, ptr %6, align 8
  call void @decrement_dissection_depth(ptr noundef %103)
  %104 = load ptr, ptr %11, align 8
  %105 = load i32, ptr %7, align 4
  %106 = load i32, ptr %10, align 4
  %107 = sub i32 %105, %106
  call void @proto_item_set_len(ptr noundef %104, i32 noundef %107)
  %108 = load i32, ptr %7, align 4
  call void @llvm.lifetime.end.p0(i64 8, ptr %11) #6
  call void @llvm.lifetime.end.p0(i64 4, ptr %10) #6
  call void @llvm.lifetime.end.p0(i64 4, ptr %9) #6
  ret i32 %108
}