; Function Attrs: null_pointer_is_valid sspstrong uwtable
define internal fastcc i32 @dissect_kademlia_search_expression_tree(ptr noundef %0, ptr noundef %1, i32 noundef %2, ptr noundef %3) unnamed_addr #0 {
  %5 = tail call zeroext i8 @tvb_get_uint8(ptr noundef %0, i32 noundef %2)
  %6 = zext i8 %5 to i32
  %7 = load i32, ptr @hf_kademlia_search_expression_type, align 4
  %8 = tail call ptr @proto_tree_add_uint(ptr noundef %3, i32 noundef %7, ptr noundef %0, i32 noundef %2, i32 noundef 1, i32 noundef %6)
  %9 = load i32, ptr @ett_kademlia_search_expression, align 4
  %10 = tail call ptr @proto_item_add_subtree(ptr noundef %8, i32 noundef %9)
  %11 = add i32 %2, 1
  tail call void @increment_dissection_depth(ptr noundef %1)
  switch i8 %5, label %59 [
    i8 0, label %12
    i8 1, label %18
    i8 2, label %27
    i8 3, label %37
    i8 8, label %48
  ]

12:                                               ; preds = %4
  %13 = load i32, ptr @hf_kademlia_search_bool_op, align 4
  %14 = tail call ptr @proto_tree_add_item(ptr noundef %10, i32 noundef %13, ptr noundef %0, i32 noundef %11, i32 noundef 1, i32 noundef 0)
  %15 = add i32 %2, 2
  %16 = tail call fastcc i32 @dissect_kademlia_search_expression_tree(ptr noundef %0, ptr noundef %1, i32 noundef %15, ptr noundef %10)
  %17 = tail call fastcc i32 @dissect_kademlia_search_expression_tree(ptr noundef %0, ptr noundef %1, i32 noundef %16, ptr noundef %10)
  br label %61

18:                                               ; preds = %4
  %19 = tail call zeroext i16 @tvb_get_letohs(ptr noundef %0, i32 noundef %11)
  %20 = load i32, ptr @hf_edonkey_string_length, align 4
  %21 = zext i16 %19 to i32
  %22 = tail call ptr @proto_tree_add_uint(ptr noundef %10, i32 noundef %20, ptr noundef %0, i32 noundef %11, i32 noundef 2, i32 noundef %21)
  %23 = load i32, ptr @hf_edonkey_kademlia_string, align 4
  %24 = add i32 %2, 3
  %25 = tail call ptr @proto_tree_add_item(ptr noundef %10, i32 noundef %23, ptr noundef %0, i32 noundef %24, i32 noundef %21, i32 noundef 0)
  %26 = add i32 %24, %21
  br label %61

27:                                               ; preds = %4
  %28 = tail call zeroext i16 @tvb_get_letohs(ptr noundef %0, i32 noundef %11)
  %29 = load i32, ptr @hf_edonkey_string_length, align 4
  %30 = zext i16 %28 to i32
  %31 = tail call ptr @proto_tree_add_uint(ptr noundef %10, i32 noundef %29, ptr noundef %0, i32 noundef %11, i32 noundef 2, i32 noundef %30)
  %32 = load i32, ptr @hf_edonkey_string, align 4
  %33 = add i32 %2, 3
  %34 = tail call ptr @proto_tree_add_item(ptr noundef %10, i32 noundef %32, ptr noundef %0, i32 noundef %33, i32 noundef %30, i32 noundef 0)
  %35 = add i32 %33, %30
  %36 = tail call fastcc i32 @dissect_kademlia_tagname(ptr noundef %0, ptr noundef %1, i32 noundef %35, ptr noundef %10, ptr noundef null, ptr noundef null)
  br label %61

37:                                               ; preds = %4
  %38 = load i32, ptr @hf_kademlia_search_condition_argument_uint32, align 4
  %39 = tail call ptr @proto_tree_add_item(ptr noundef %10, i32 noundef %38, ptr noundef %0, i32 noundef %11, i32 noundef 4, i32 noundef -2147483648)
  %40 = add i32 %2, 5
  %41 = tail call zeroext i8 @tvb_get_uint8(ptr noundef %0, i32 noundef %40)
  %42 = load i32, ptr @hf_kademlia_search_condition, align 4
  %43 = tail call ptr @proto_tree_add_item(ptr noundef %10, i32 noundef %42, ptr noundef %0, i32 noundef %40, i32 noundef 1, i32 noundef 0)
  %44 = zext i8 %41 to i32
  %45 = tail call ptr @val_to_str_const(i32 noundef %44, ptr noundef nonnull @kademlia_search_conds, ptr noundef nonnull @.str.363)
  tail call void (ptr, ptr, ...) @proto_item_append_text(ptr noundef %43, ptr noundef nonnull @.str.577, ptr noundef %45)
  %46 = add i32 %2, 6
  %47 = tail call fastcc i32 @dissect_kademlia_tagname(ptr noundef %0, ptr noundef %1, i32 noundef %46, ptr noundef %10, ptr noundef null, ptr noundef null)
  br label %61

48:                                               ; preds = %4
  %49 = load i32, ptr @hf_kademlia_search_condition_argument_uint64, align 4
  %50 = tail call ptr @proto_tree_add_item(ptr noundef %10, i32 noundef %49, ptr noundef %0, i32 noundef %11, i32 noundef 8, i32 noundef -2147483648)
  %51 = add i32 %2, 9
  %52 = tail call zeroext i8 @tvb_get_uint8(ptr noundef %0, i32 noundef %51)
  %53 = load i32, ptr @hf_kademlia_search_condition, align 4
  %54 = tail call ptr @proto_tree_add_item(ptr noundef %10, i32 noundef %53, ptr noundef %0, i32 noundef %51, i32 noundef 1, i32 noundef 0)
  %55 = zext i8 %52 to i32
  %56 = tail call ptr @val_to_str_const(i32 noundef %55, ptr noundef nonnull @kademlia_search_conds, ptr noundef nonnull @.str.363)
  tail call void (ptr, ptr, ...) @proto_item_append_text(ptr noundef %54, ptr noundef nonnull @.str.577, ptr noundef %56)
  %57 = add i32 %2, 10
  %58 = tail call fastcc i32 @dissect_kademlia_tagname(ptr noundef %0, ptr noundef %1, i32 noundef %57, ptr noundef %10, ptr noundef null, ptr noundef null)
  br label %61

59:                                               ; preds = %4
  %60 = tail call ptr (ptr, ptr, ptr, ptr, ...) @expert_add_info_format(ptr noundef %1, ptr noundef %8, ptr noundef nonnull @ei_kademlia_search_expression_type, ptr noundef nonnull @.str.651, i32 noundef %6)
  br label %61

61:                                               ; preds = %59, %48, %37, %27, %18, %12
  %.0 = phi i32 [ %11, %59 ], [ %58, %48 ], [ %47, %37 ], [ %36, %27 ], [ %26, %18 ], [ %17, %12 ]
  tail call void @decrement_dissection_depth(ptr noundef %1)
  %62 = sub i32 %.0, %2
  tail call void @proto_item_set_len(ptr noundef %8, i32 noundef %62)
  ret i32 %.0
}